target datalayout = "e-m:e-p270:32:32-p271:32:32-p272:64:64-i64:64-i128:128-f80:128-n8:16:32:64-S128"
target triple = "x86_64-pc-linux-gnu"

%"class.duckdb_re2::RE2::Options" = type <{ i64, i32, i8, i8, i8, i8, i8, i8, i8, i8, i8, i8, i8, i8 }>
%"class.std::__cxx11::basic_string" = type { %"struct.std::__cxx11::basic_string<char>::_Alloc_hider", i64, %union.anon }
%"struct.std::__cxx11::basic_string<char>::_Alloc_hider" = type { ptr }
%union.anon = type { i64, [8 x i8] }
%class.LogMessage = type { i8, %"class.std::__cxx11::basic_ostringstream" }
%"class.std::__cxx11::basic_ostringstream" = type { %"class.std::basic_ostream.base", %"class.std::__cxx11::basic_stringbuf", %"class.std::basic_ios" }
%"class.std::basic_ostream.base" = type { ptr }
%"class.std::__cxx11::basic_stringbuf" = type { %"class.std::basic_streambuf", i32, %"class.std::__cxx11::basic_string" }
%"class.std::basic_streambuf" = type { ptr, ptr, ptr, ptr, ptr, ptr, ptr, %"class.std::locale" }
%"class.std::locale" = type { ptr }
%"class.std::basic_ios" = type { %"class.std::ios_base", ptr, i8, i8, ptr, ptr, ptr, ptr }
%"class.std::ios_base" = type { ptr, i64, i64, i32, i32, i32, ptr, %"struct.std::ios_base::_Words", [8 x %"struct.std::ios_base::_Words"], i32, ptr, %"class.std::locale" }
%"struct.std::ios_base::_Words" = type { ptr, i64 }

@.str = private unnamed_addr constant [118 x i8] c"generated/home/dtcxzyw/WorkSpace/Projects/compilers/llvm-opt-benchmark/bench/duckdb/duckdb/third_party/re2/re2/re2.cc\00", align 1
@.str.1 = private unnamed_addr constant [18 x i8] c"Unknown encoding \00", align 1

; Function Attrs: inlinehint mustprogress nounwind uwtable
define linkonce_odr noundef i32 @_ZStorSt12_Ios_IostateS_(i32 noundef %0, i32 noundef %1) #7 comdat {
  %3 = alloca i32, align 4
  %4 = alloca i32, align 4
  store i32 %0, ptr %3, align 4, !tbaa !378
  store i32 %1, ptr %4, align 4, !tbaa !378
  %5 = load i32, ptr %3, align 4, !tbaa !378
  %6 = load i32, ptr %4, align 4, !tbaa !378
  %7 = or i32 %5, %6
  ret i32 %7
}

; Function Attrs: mustprogress nounwind uwtable
define available_externally noundef i32 @_ZNKSt9basic_iosIcSt11char_traitsIcEE7rdstateEv(ptr noundef nonnull align 8 dereferenceable(264) %0) #0 align 2 {
  %2 = alloca ptr, align 8
  store ptr %0, ptr %2, align 8, !tbaa !197
  %3 = load ptr, ptr %2, align 8
  %4 = getelementptr inbounds nuw %"class.std::ios_base", ptr %3, i32 0, i32 5
  %5 = load i32, ptr %4, align 8, !tbaa !379
  ret i32 %5
}

; Function Attrs: mustprogress nounwind uwtable
define linkonce_odr noundef i64 @_ZNSt11char_traitsIcE6lengthEPKc(ptr noundef %0) #0 comdat align 2 {
  %2 = alloca ptr, align 8
  store ptr %0, ptr %2, align 8, !tbaa !31
  %3 = load ptr, ptr %2, align 8, !tbaa !31
  %4 = call i64 @strlen(ptr noundef %3) #20
  ret i64 %4
}

; Function Attrs: mustprogress uwtable
define available_externally void @_ZNSt9basic_iosIcSt11char_traitsIcEE8setstateESt12_Ios_Iostate(ptr noundef nonnull align 8 dereferenceable(264) %0, i32 noundef %1) #1 align 2 {
  %3 = alloca ptr, align 8
  %4 = alloca i32, align 4
  store ptr %0, ptr %3, align 8, !tbaa !197
  store i32 %1, ptr %4, align 4, !tbaa !378
  %5 = load ptr, ptr %3, align 8
  %6 = call noundef i32 @_ZNKSt9basic_iosIcSt11char_traitsIcEE7rdstateEv(ptr noundef nonnull align 8 dereferenceable(264) %5)
  %7 = load i32, ptr %4, align 4, !tbaa !378
  %8 = call noundef i32 @_ZStorSt12_Ios_IostateS_(i32 noundef %6, i32 noundef %7)
  call void @_ZNSt9basic_iosIcSt11char_traitsIcEE5clearESt12_Ios_Iostate(ptr noundef nonnull align 8 dereferenceable(264) %5, i32 noundef %8)
  ret void
}

; Function Attrs: mustprogress nounwind uwtable
define linkonce_odr hidden noundef zeroext i1 @_ZNK10duckdb_re23RE27Options8one_lineEv(ptr noundef nonnull align 8 dereferenceable(23) %0) #0 comdat align 2 {
  %2 = alloca ptr, align 8
  store ptr %0, ptr %2, align 8, !tbaa !7
  %3 = load ptr, ptr %2, align 8
  %4 = getelementptr inbounds nuw %"class.duckdb_re2::RE2::Options", ptr %3, i32 0, i32 12
  %5 = load i8, ptr %4, align 2, !tbaa !28, !range !60, !noundef !61
  %6 = trunc i8 %5 to i1
  ret i1 %6
}

; Function Attrs: mustprogress nounwind uwtable
define linkonce_odr hidden noundef zeroext i1 @_ZNK10duckdb_re23RE27Options13word_boundaryEv(ptr noundef nonnull align 8 dereferenceable(23) %0) #0 comdat align 2 {
  %2 = alloca ptr, align 8
  store ptr %0, ptr %2, align 8, !tbaa !7
  %3 = load ptr, ptr %2, align 8
  %4 = getelementptr inbounds nuw %"class.duckdb_re2::RE2::Options", ptr %3, i32 0, i32 11
  %5 = load i8, ptr %4, align 1, !tbaa !27, !range !60, !noundef !61
  %6 = trunc i8 %5 to i1
  ret i1 %6
}

; Function Attrs: mustprogress nounwind uwtable
define linkonce_odr hidden noundef zeroext i1 @_ZNK10duckdb_re23RE27Options12perl_classesEv(ptr noundef nonnull align 8 dereferenceable(23) %0) #0 comdat align 2 {
  %2 = alloca ptr, align 8
  store ptr %0, ptr %2, align 8, !tbaa !7
  %3 = load ptr, ptr %2, align 8
  %4 = getelementptr inbounds nuw %"class.duckdb_re2::RE2::Options", ptr %3, i32 0, i32 10
  %5 = load i8, ptr %4, align 4, !tbaa !26, !range !60, !noundef !61
  %6 = trunc i8 %5 to i1
  ret i1 %6
}

; Function Attrs: mustprogress nounwind uwtable
define linkonce_odr hidden noundef zeroext i1 @_ZNK10duckdb_re23RE27Options14case_sensitiveEv(ptr noundef nonnull align 8 dereferenceable(23) %0) #0 comdat align 2 {
  %2 = alloca ptr, align 8
  store ptr %0, ptr %2, align 8, !tbaa !7
  %3 = load ptr, ptr %2, align 8
  %4 = getelementptr inbounds nuw %"class.duckdb_re2::RE2::Options", ptr %3, i32 0, i32 9
  %5 = load i8, ptr %4, align 1, !tbaa !25, !range !60, !noundef !61
  %6 = trunc i8 %5 to i1
  ret i1 %6
}

; Function Attrs: mustprogress nounwind uwtable
define linkonce_odr hidden noundef zeroext i1 @_ZNK10duckdb_re23RE27Options13never_captureEv(ptr noundef nonnull align 8 dereferenceable(23) %0) #0 comdat align 2 {
  %2 = alloca ptr, align 8
  store ptr %0, ptr %2, align 8, !tbaa !7
  %3 = load ptr, ptr %2, align 8
  %4 = getelementptr inbounds nuw %"class.duckdb_re2::RE2::Options", ptr %3, i32 0, i32 8
  %5 = load i8, ptr %4, align 2, !tbaa !24, !range !60, !noundef !61
  %6 = trunc i8 %5 to i1
  ret i1 %6
}

; Function Attrs: mustprogress nounwind uwtable
define linkonce_odr hidden noundef zeroext i1 @_ZNK10duckdb_re23RE27Options6dot_nlEv(ptr noundef nonnull align 8 dereferenceable(23) %0) #0 comdat align 2 {
  %2 = alloca ptr, align 8
  store ptr %0, ptr %2, align 8, !tbaa !7
  %3 = load ptr, ptr %2, align 8
  %4 = getelementptr inbounds nuw %"class.duckdb_re2::RE2::Options", ptr %3, i32 0, i32 7
  %5 = load i8, ptr %4, align 1, !tbaa !23, !range !60, !noundef !61
  %6 = trunc i8 %5 to i1
  ret i1 %6
}

; Function Attrs: mustprogress nounwind uwtable
define linkonce_odr hidden noundef zeroext i1 @_ZNK10duckdb_re23RE27Options8never_nlEv(ptr noundef nonnull align 8 dereferenceable(23) %0) #0 comdat align 2 {
  %2 = alloca ptr, align 8
  store ptr %0, ptr %2, align 8, !tbaa !7
  %3 = load ptr, ptr %2, align 8
  %4 = getelementptr inbounds nuw %"class.duckdb_re2::RE2::Options", ptr %3, i32 0, i32 6
  %5 = load i8, ptr %4, align 8, !tbaa !22, !range !60, !noundef !61
  %6 = trunc i8 %5 to i1
  ret i1 %6
}

; Function Attrs: mustprogress nounwind uwtable
define linkonce_odr hidden noundef zeroext i1 @_ZNK10duckdb_re23RE27Options7literalEv(ptr noundef nonnull align 8 dereferenceable(23) %0) #0 comdat align 2 {
  %2 = alloca ptr, align 8
  store ptr %0, ptr %2, align 8, !tbaa !7
  %3 = load ptr, ptr %2, align 8
  %4 = getelementptr inbounds nuw %"class.duckdb_re2::RE2::Options", ptr %3, i32 0, i32 5
  %5 = load i8, ptr %4, align 1, !tbaa !21, !range !60, !noundef !61
  %6 = trunc i8 %5 to i1
  ret i1 %6
}

; Function Attrs: mustprogress nounwind uwtable
define linkonce_odr hidden noundef zeroext i1 @_ZNK10duckdb_re23RE27Options12posix_syntaxEv(ptr noundef nonnull align 8 dereferenceable(23) %0) #0 comdat align 2 {
  %2 = alloca ptr, align 8
  store ptr %0, ptr %2, align 8, !tbaa !7
  %3 = load ptr, ptr %2, align 8
  %4 = getelementptr inbounds nuw %"class.duckdb_re2::RE2::Options", ptr %3, i32 0, i32 2
  %5 = load i8, ptr %4, align 4, !tbaa !18, !range !60, !noundef !61
  %6 = trunc i8 %5 to i1
  ret i1 %6
}

; Function Attrs: inlinehint mustprogress uwtable
define available_externally noundef nonnull align 8 dereferenceable(8) ptr @_ZStlsISt11char_traitsIcEERSt13basic_ostreamIcT_ES5_PKc(ptr noundef nonnull align 8 dereferenceable(8) %0, ptr noundef %1) #3 {
  %3 = alloca ptr, align 8
  %4 = alloca ptr, align 8
  store ptr %0, ptr %3, align 8, !tbaa !66
  store ptr %1, ptr %4, align 8, !tbaa !31
  %5 = load ptr, ptr %4, align 8, !tbaa !31
  %6 = icmp ne ptr %5, null
  br i1 %6, label %13, label %7

7:                                                ; preds = %2
  %8 = load ptr, ptr %3, align 8, !tbaa !66
  %9 = load ptr, ptr %8, align 8, !tbaa !68
  %10 = getelementptr i8, ptr %9, i64 -24
  %11 = load i64, ptr %10, align 8
  %12 = getelementptr inbounds i8, ptr %8, i64 %11
  call void @_ZNSt9basic_iosIcSt11char_traitsIcEE8setstateESt12_Ios_Iostate(ptr noundef nonnull align 8 dereferenceable(264) %12, i32 noundef 1)
  br label %19

13:                                               ; preds = %2
  %14 = load ptr, ptr %3, align 8, !tbaa !66
  %15 = load ptr, ptr %4, align 8, !tbaa !31
  %16 = load ptr, ptr %4, align 8, !tbaa !31
  %17 = call noundef i64 @_ZNSt11char_traitsIcE6lengthEPKc(ptr noundef %16)
  %18 = call noundef nonnull align 8 dereferenceable(8) ptr @_ZSt16__ostream_insertIcSt11char_traitsIcEERSt13basic_ostreamIT_T0_ES6_PKS3_l(ptr noundef nonnull align 8 dereferenceable(8) %14, ptr noundef %15, i64 noundef %17)
  br label %19

19:                                               ; preds = %13, %7
  %20 = load ptr, ptr %3, align 8, !tbaa !66
  ret ptr %20
}

; Function Attrs: mustprogress nounwind uwtable
define linkonce_odr hidden noundef nonnull align 8 dereferenceable(8) ptr @_ZN10LogMessage6streamEv(ptr noundef nonnull align 8 dereferenceable(384) %0) #0 comdat align 2 {
  %2 = alloca ptr, align 8
  store ptr %0, ptr %2, align 8, !tbaa !70
  %3 = load ptr, ptr %2, align 8
  %4 = getelementptr inbounds nuw %class.LogMessage, ptr %3, i32 0, i32 1
  ret ptr %4
}

; Function Attrs: mustprogress uwtable
define linkonce_odr hidden void @_ZN10LogMessageC2EPKci(ptr noundef nonnull align 8 dereferenceable(384) %0, ptr noundef %1, i32 noundef %2) unnamed_addr #1 comdat align 2 {
  %4 = alloca ptr, align 8
  %5 = alloca ptr, align 8
  %6 = alloca i32, align 4
  store ptr %0, ptr %4, align 8, !tbaa !70
  store ptr %1, ptr %5, align 8, !tbaa !31
  store i32 %2, ptr %6, align 4, !tbaa !3
  %7 = load ptr, ptr %4, align 8
  %8 = getelementptr inbounds nuw %class.LogMessage, ptr %7, i32 0, i32 0
  store i8 0, ptr %8, align 8, !tbaa !72
  %9 = getelementptr inbounds nuw %class.LogMessage, ptr %7, i32 0, i32 1
  call void @_ZNSt7__cxx1119basic_ostringstreamIcSt11char_traitsIcESaIcEEC1Ev(ptr noundef nonnull align 8 dereferenceable(112) %9)
  ret void
}

; Function Attrs: mustprogress nounwind uwtable
define linkonce_odr hidden noundef zeroext i1 @_ZNK10duckdb_re23RE27Options10log_errorsEv(ptr noundef nonnull align 8 dereferenceable(23) %0) #0 comdat align 2 {
  %2 = alloca ptr, align 8
  store ptr %0, ptr %2, align 8, !tbaa !7
  %3 = load ptr, ptr %2, align 8
  %4 = getelementptr inbounds nuw %"class.duckdb_re2::RE2::Options", ptr %3, i32 0, i32 4
  %5 = load i8, ptr %4, align 2, !tbaa !20, !range !60, !noundef !61
  %6 = trunc i8 %5 to i1
  ret i1 %6
}

; Function Attrs: mustprogress nounwind uwtable
define linkonce_odr hidden noundef i32 @_ZNK10duckdb_re23RE27Options8encodingEv(ptr noundef nonnull align 8 dereferenceable(23) %0) #0 comdat align 2 {
  %2 = alloca ptr, align 8
  store ptr %0, ptr %2, align 8, !tbaa !7
  %3 = load ptr, ptr %2, align 8
  %4 = getelementptr inbounds nuw %"class.duckdb_re2::RE2::Options", ptr %3, i32 0, i32 1
  %5 = load i32, ptr %4, align 8, !tbaa !17
  ret i32 %5
}

; Function Attrs: mustprogress uwtable
define hidden noundef i32 @_ZNK10duckdb_re23RE27Options10ParseFlagsEv(ptr noundef nonnull align 8 dereferenceable(23) %0) #1 align 2 personality ptr @__gxx_personality_v0 {
  %2 = alloca ptr, align 8
  %3 = alloca i32, align 4
  %4 = alloca %class.LogMessage, align 8
  %5 = alloca ptr, align 8
  %6 = alloca i32, align 4
  store ptr %0, ptr %2, align 8, !tbaa !7
  %7 = load ptr, ptr %2, align 8
  call void @llvm.lifetime.start.p0(i64 4, ptr %3) #20
  store i32 4, ptr %3, align 4, !tbaa !3
  %8 = call noundef i32 @_ZNK10duckdb_re23RE27Options8encodingEv(ptr noundef nonnull align 8 dereferenceable(23) %7)
  switch i32 %8, label %9 [
    i32 1, label %28
    i32 2, label %25
  ]

9:                                                ; preds = %1
  %10 = call noundef zeroext i1 @_ZNK10duckdb_re23RE27Options10log_errorsEv(ptr noundef nonnull align 8 dereferenceable(23) %7)
  br i1 %10, label %11, label %24

11:                                               ; preds = %9
  call void @llvm.lifetime.start.p0(i64 384, ptr %4) #20
  call void @_ZN10LogMessageC2EPKci(ptr noundef nonnull align 8 dereferenceable(384) %4, ptr noundef @.str, i32 noundef 160)
  %12 = invoke noundef nonnull align 8 dereferenceable(8) ptr @_ZN10LogMessage6streamEv(ptr noundef nonnull align 8 dereferenceable(384) %4)
          to label %13 unwind label %20

13:                                               ; preds = %11
  %14 = invoke noundef nonnull align 8 dereferenceable(8) ptr @_ZStlsISt11char_traitsIcEERSt13basic_ostreamIcT_ES5_PKc(ptr noundef nonnull align 8 dereferenceable(8) %12, ptr noundef @.str.1)
          to label %15 unwind label %20

15:                                               ; preds = %13
  %16 = invoke noundef i32 @_ZNK10duckdb_re23RE27Options8encodingEv(ptr noundef nonnull align 8 dereferenceable(23) %7)
          to label %17 unwind label %20

17:                                               ; preds = %15
  %18 = invoke noundef nonnull align 8 dereferenceable(8) ptr @_ZNSolsEi(ptr noundef nonnull align 8 dereferenceable(8) %14, i32 noundef %16)
          to label %19 unwind label %20

19:                                               ; preds = %17
  call void @_ZN10LogMessageD2Ev(ptr noundef nonnull align 8 dereferenceable(384) %4) #20
  call void @llvm.lifetime.end.p0(i64 384, ptr %4) #20
  br label %24

20:                                               ; preds = %17, %15, %13, %11
  %21 = landingpad { ptr, i32 }
          cleanup
  %22 = extractvalue { ptr, i32 } %21, 0
  store ptr %22, ptr %5, align 8
  %23 = extractvalue { ptr, i32 } %21, 1
  store i32 %23, ptr %6, align 4
  call void @_ZN10LogMessageD2Ev(ptr noundef nonnull align 8 dereferenceable(384) %4) #20
  call void @llvm.lifetime.end.p0(i64 384, ptr %4) #20
  call void @llvm.lifetime.end.p0(i64 4, ptr %3) #20
  br label %75

24:                                               ; preds = %19, %9
  br label %28

25:                                               ; preds = %1
  %26 = load i32, ptr %3, align 4, !tbaa !3
  %27 = or i32 %26, 32
  store i32 %27, ptr %3, align 4, !tbaa !3
  br label %28

28:                                               ; preds = %25, %1, %24
  %29 = call noundef zeroext i1 @_ZNK10duckdb_re23RE27Options12posix_syntaxEv(ptr noundef nonnull align 8 dereferenceable(23) %7)
  br i1 %29, label %33, label %30

30:                                               ; preds = %28
  %31 = load i32, ptr %3, align 4, !tbaa !3
  %32 = or i32 %31, 1940
  store i32 %32, ptr %3, align 4, !tbaa !3
  br label %33

33:                                               ; preds = %30, %28
  %34 = call noundef zeroext i1 @_ZNK10duckdb_re23RE27Options7literalEv(ptr noundef nonnull align 8 dereferenceable(23) %7)
  br i1 %34, label %35, label %38

35:                                               ; preds = %33
  %36 = load i32, ptr %3, align 4, !tbaa !3
  %37 = or i32 %36, 2
  store i32 %37, ptr %3, align 4, !tbaa !3
  br label %38

38:                                               ; preds = %35, %33
  %39 = call noundef zeroext i1 @_ZNK10duckdb_re23RE27Options8never_nlEv(ptr noundef nonnull align 8 dereferenceable(23) %7)
  br i1 %39, label %40, label %43

40:                                               ; preds = %38
  %41 = load i32, ptr %3, align 4, !tbaa !3
  %42 = or i32 %41, 2048
  store i32 %42, ptr %3, align 4, !tbaa !3
  br label %43

43:                                               ; preds = %40, %38
  %44 = call noundef zeroext i1 @_ZNK10duckdb_re23RE27Options6dot_nlEv(ptr noundef nonnull align 8 dereferenceable(23) %7)
  br i1 %44, label %45, label %48

45:                                               ; preds = %43
  %46 = load i32, ptr %3, align 4, !tbaa !3
  %47 = or i32 %46, 8
  store i32 %47, ptr %3, align 4, !tbaa !3
  br label %48

48:                                               ; preds = %45, %43
  %49 = call noundef zeroext i1 @_ZNK10duckdb_re23RE27Options13never_captureEv(ptr noundef nonnull align 8 dereferenceable(23) %7)
  br i1 %49, label %50, label %53

50:                                               ; preds = %48
  %51 = load i32, ptr %3, align 4, !tbaa !3
  %52 = or i32 %51, 4096
  store i32 %52, ptr %3, align 4, !tbaa !3
  br label %53

53:                                               ; preds = %50, %48
  %54 = call noundef zeroext i1 @_ZNK10duckdb_re23RE27Options14case_sensitiveEv(ptr noundef nonnull align 8 dereferenceable(23) %7)
  br i1 %54, label %58, label %55

55:                                               ; preds = %53
  %56 = load i32, ptr %3, align 4, !tbaa !3
  %57 = or i32 %56, 1
  store i32 %57, ptr %3, align 4, !tbaa !3
  br label %58

58:                                               ; preds = %55, %53
  %59 = call noundef zeroext i1 @_ZNK10duckdb_re23RE27Options12perl_classesEv(ptr noundef nonnull align 8 dereferenceable(23) %7)
  br i1 %59, label %60, label %63

60:                                               ; preds = %58
  %61 = load i32, ptr %3, align 4, !tbaa !3
  %62 = or i32 %61, 128
  store i32 %62, ptr %3, align 4, !tbaa !3
  br label %63

63:                                               ; preds = %60, %58
  %64 = call noundef zeroext i1 @_ZNK10duckdb_re23RE27Options13word_boundaryEv(ptr noundef nonnull align 8 dereferenceable(23) %7)
  br i1 %64, label %65, label %68

65:                                               ; preds = %63
  %66 = load i32, ptr %3, align 4, !tbaa !3
  %67 = or i32 %66, 256
  store i32 %67, ptr %3, align 4, !tbaa !3
  br label %68

68:                                               ; preds = %65, %63
  %69 = call noundef zeroext i1 @_ZNK10duckdb_re23RE27Options8one_lineEv(ptr noundef nonnull align 8 dereferenceable(23) %7)
  br i1 %69, label %70, label %73

70:                                               ; preds = %68
  %71 = load i32, ptr %3, align 4, !tbaa !3
  %72 = or i32 %71, 16
  store i32 %72, ptr %3, align 4, !tbaa !3
  br label %73

73:                                               ; preds = %70, %68
  %74 = load i32, ptr %3, align 4, !tbaa !3
  call void @llvm.lifetime.end.p0(i64 4, ptr %3) #20
  ret i32 %74

75:                                               ; preds = %20
  %76 = load ptr, ptr %5, align 8
  %77 = load i32, ptr %6, align 4
  %78 = insertvalue { ptr, i32 } poison, ptr %76, 0
  %79 = insertvalue { ptr, i32 } %78, i32 %77, 1
  resume { ptr, i32 } %79
}