; Function Attrs: mustprogress uwtable
define hidden noundef range(i32 4, 8192) i32 @_ZNK10duckdb_re23RE27Options10ParseFlagsEv(ptr noundef nonnull readonly align 8 captures(none) dereferenceable(23) %0) local_unnamed_addr #2 align 2 personality ptr @__gxx_personality_v0 {
  %2 = alloca %class.LogMessage, align 8
  %3 = getelementptr inbounds nuw i8, ptr %0, i64 8
  %4 = load i32, ptr %3, align 8, !tbaa !12
  switch i32 %4, label %5 [
    i32 1, label %33
    i32 2, label %32
  ]

5:                                                ; preds = %1
  %6 = getelementptr inbounds nuw i8, ptr %0, i64 14
  %7 = load i8, ptr %6, align 2, !tbaa !15, !range !52, !noundef !53
  %8 = trunc nuw i8 %7 to i1
  br i1 %8, label %9, label %33

9:                                                ; preds = %5
  call void @llvm.lifetime.start.p0(i64 384, ptr nonnull %2) #31
  store i8 0, ptr %2, align 8, !tbaa !58
  %10 = getelementptr inbounds nuw i8, ptr %2, i64 8
  call void @_ZNSt7__cxx1119basic_ostringstreamIcSt11char_traitsIcESaIcEEC1Ev(ptr noundef nonnull align 8 dereferenceable(112) %10)
  %11 = invoke noundef nonnull align 8 dereferenceable(8) ptr @_ZSt16__ostream_insertIcSt11char_traitsIcEERSt13basic_ostreamIT_T0_ES6_PKS3_l(ptr noundef nonnull align 8 dereferenceable(8) %10, ptr noundef nonnull @.str.1, i64 noundef 17)
          to label %_ZStlsISt11char_traitsIcEERSt13basic_ostreamIcT_ES5_PKc.exit unwind label %30

_ZStlsISt11char_traitsIcEERSt13basic_ostreamIcT_ES5_PKc.exit: ; preds = %9
  %12 = load i32, ptr %3, align 8, !tbaa !12
  %13 = invoke noundef nonnull align 8 dereferenceable(8) ptr @_ZNSolsEi(ptr noundef nonnull align 8 dereferenceable(8) %10, i32 noundef %12)
          to label %14 unwind label %30

14:                                               ; preds = %_ZStlsISt11char_traitsIcEERSt13basic_ostreamIcT_ES5_PKc.exit
  %15 = load ptr, ptr @_ZTTNSt7__cxx1119basic_ostringstreamIcSt11char_traitsIcESaIcEEE, align 8
  store ptr %15, ptr %10, align 8, !tbaa !67
  %16 = load ptr, ptr getelementptr inbounds nuw (i8, ptr @_ZTTNSt7__cxx1119basic_ostringstreamIcSt11char_traitsIcESaIcEEE, i64 24), align 8
  %17 = getelementptr i8, ptr %15, i64 -24
  %18 = load i64, ptr %17, align 8
  %19 = getelementptr inbounds i8, ptr %10, i64 %18
  store ptr %16, ptr %19, align 8, !tbaa !67
  %20 = getelementptr inbounds nuw i8, ptr %2, i64 16
  store ptr getelementptr inbounds nuw inrange(-16, 112) (i8, ptr @_ZTVNSt7__cxx1115basic_stringbufIcSt11char_traitsIcESaIcEEE, i64 16), ptr %20, align 8, !tbaa !67
  %21 = getelementptr inbounds nuw i8, ptr %2, i64 88
  %22 = load ptr, ptr %21, align 8, !tbaa !32
  %23 = getelementptr inbounds nuw i8, ptr %2, i64 104
  %24 = icmp eq ptr %22, %23
  br i1 %24, label %_ZNKSt7__cxx1112basic_stringIcSt11char_traitsIcESaIcEE11_M_is_localEv.exit.thread.i.i.i.i.i.i, label %_ZNKSt7__cxx1112basic_stringIcSt11char_traitsIcESaIcEE11_M_is_localEv.exit.i.i.i.i.i.i

_ZNKSt7__cxx1112basic_stringIcSt11char_traitsIcESaIcEE11_M_is_localEv.exit.thread.i.i.i.i.i.i: ; preds = %14
  %25 = getelementptr inbounds nuw i8, ptr %2, i64 96
  %26 = load i64, ptr %25, align 8, !tbaa !24
  %27 = icmp ult i64 %26, 16
  call void @llvm.assume(i1 %27)
  br label %_ZN10LogMessageD2Ev.exit

_ZNKSt7__cxx1112basic_stringIcSt11char_traitsIcESaIcEE11_M_is_localEv.exit.i.i.i.i.i.i: ; preds = %14
  call void @_ZdlPv(ptr noundef %22) #33
  br label %_ZN10LogMessageD2Ev.exit

_ZN10LogMessageD2Ev.exit:                         ; preds = %_ZNKSt7__cxx1112basic_stringIcSt11char_traitsIcESaIcEE11_M_is_localEv.exit.thread.i.i.i.i.i.i, %_ZNKSt7__cxx1112basic_stringIcSt11char_traitsIcESaIcEE11_M_is_localEv.exit.i.i.i.i.i.i
  store ptr getelementptr inbounds nuw inrange(-16, 112) (i8, ptr @_ZTVSt15basic_streambufIcSt11char_traitsIcEE, i64 16), ptr %20, align 8, !tbaa !67
  %28 = getelementptr inbounds nuw i8, ptr %2, i64 72
  call void @_ZNSt6localeD1Ev(ptr noundef nonnull align 8 dereferenceable(8) %28) #31
  %29 = getelementptr inbounds nuw i8, ptr %2, i64 120
  call void @_ZNSt8ios_baseD2Ev(ptr noundef nonnull align 8 dereferenceable(264) %29) #31
  call void @llvm.lifetime.end.p0(i64 384, ptr nonnull %2) #31
  br label %33

30:                                               ; preds = %9, %_ZStlsISt11char_traitsIcEERSt13basic_ostreamIcT_ES5_PKc.exit
  %31 = landingpad { ptr, i32 }
          cleanup
  call void @_ZN10LogMessageD2Ev(ptr noundef nonnull align 8 dereferenceable(384) %2) #31
  call void @llvm.lifetime.end.p0(i64 384, ptr nonnull %2) #31
  resume { ptr, i32 } %31

32:                                               ; preds = %1
  br label %33

33:                                               ; preds = %5, %_ZN10LogMessageD2Ev.exit, %32, %1
  %.0 = phi i32 [ 4, %_ZN10LogMessageD2Ev.exit ], [ 4, %5 ], [ 36, %32 ], [ 4, %1 ]
  %34 = getelementptr inbounds nuw i8, ptr %0, i64 12
  %35 = load i8, ptr %34, align 4, !tbaa !13, !range !52, !noundef !53
  %36 = trunc nuw i8 %35 to i1
  %37 = or i32 %.0, 1940
  %spec.select = select i1 %36, i32 %.0, i32 %37
  %38 = getelementptr inbounds nuw i8, ptr %0, i64 15
  %39 = load i8, ptr %38, align 1, !tbaa !76, !range !52, !noundef !53
  %40 = trunc nuw i8 %39 to i1
  %41 = or disjoint i32 %spec.select, 2
  %.2 = select i1 %40, i32 %41, i32 %spec.select
  %42 = getelementptr inbounds nuw i8, ptr %0, i64 16
  %43 = load i8, ptr %42, align 8, !tbaa !77, !range !52, !noundef !53
  %44 = trunc nuw i8 %43 to i1
  %45 = or i32 %.2, 2048
  %.3 = select i1 %44, i32 %45, i32 %.2
  %46 = getelementptr inbounds nuw i8, ptr %0, i64 17
  %47 = load i8, ptr %46, align 1, !tbaa !78, !range !52, !noundef !53
  %48 = trunc nuw i8 %47 to i1
  %49 = or i32 %.3, 8
  %.4 = select i1 %48, i32 %49, i32 %.3
  %50 = getelementptr inbounds nuw i8, ptr %0, i64 18
  %51 = load i8, ptr %50, align 2, !tbaa !79, !range !52, !noundef !53
  %52 = trunc nuw i8 %51 to i1
  %53 = or i32 %.4, 4096
  %.5 = select i1 %52, i32 %53, i32 %.4
  %54 = getelementptr inbounds nuw i8, ptr %0, i64 19
  %55 = load i8, ptr %54, align 1, !tbaa !16, !range !52, !noundef !53
  %56 = xor i8 %55, 1
  %not. = zext nneg i8 %56 to i32
  %.6 = or i32 %.5, %not.
  %57 = getelementptr inbounds nuw i8, ptr %0, i64 20
  %58 = load i8, ptr %57, align 4, !tbaa !17, !range !52, !noundef !53
  %59 = trunc nuw i8 %58 to i1
  %60 = or i32 %.6, 128
  %.7 = select i1 %59, i32 %60, i32 %.6
  %61 = getelementptr inbounds nuw i8, ptr %0, i64 21
  %62 = load i8, ptr %61, align 1, !tbaa !18, !range !52, !noundef !53
  %63 = trunc nuw i8 %62 to i1
  %64 = or i32 %.7, 256
  %.8 = select i1 %63, i32 %64, i32 %.7
  %65 = getelementptr inbounds nuw i8, ptr %0, i64 22
  %66 = load i8, ptr %65, align 2, !tbaa !19, !range !52, !noundef !53
  %67 = trunc nuw i8 %66 to i1
  %68 = or i32 %.8, 16
  %.9 = select i1 %67, i32 %68, i32 %.8
  ret i32 %.9
}